; Function Attrs: mustprogress nofree norecurse nosync nounwind willreturn memory(argmem: readwrite) uwtable
define internal void @diff_tree_tweak_rev(ptr noundef captures(none) %0) #6 {
  %2 = getelementptr inbounds nuw i8, ptr %0, i64 1748
  %3 = load i32, ptr %2, align 4, !tbaa !114
  %.not = icmp eq i32 %3, 0
  br i1 %.not, label %.sink.split, label %7

.sink.split:                                      ; preds = %1
  %4 = getelementptr inbounds nuw i8, ptr %0, i64 288
  %5 = load i64, ptr %4, align 8
  %6 = and i64 %5, 144115188075855872
  %.not4 = icmp eq i64 %6, 0
  %. = select i1 %.not4, i32 1, i32 16
  store i32 %., ptr %2, align 4, !tbaa !114
  br label %7

7:                                                ; preds = %.sink.split, %1
  ret void
}